; Function Attrs: mustprogress uwtable
define void @_ZNK6duckdb8Pipeline8ToStringB5cxx11Ev(ptr dead_on_unwind noalias writable sret(%"class.std::__cxx11::basic_string") align 8 %0, ptr noundef nonnull align 8 dereferenceable(224) %1) local_unnamed_addr #0 align 2 personality ptr @__gxx_personality_v0 {
  %3 = alloca %"class.duckdb::TextTreeRenderer", align 8
  call void @llvm.lifetime.start.p0(i64 136, ptr nonnull %3) #35
  %.sroa.88.0..sroa_idx = getelementptr inbounds nuw i8, ptr %3, i64 41
  call void @llvm.memset.p0.i64(ptr noundef nonnull align 1 dereferenceable(7) %.sroa.88.0..sroa_idx, i8 0, i64 7, i1 false)
  store ptr getelementptr inbounds nuw inrange(-16, 40) (i8, ptr @_ZTVN6duckdb16TextTreeRendererE, i64 16), ptr %3, align 8, !tbaa !54
  %4 = getelementptr inbounds nuw i8, ptr %3, i64 8
  store i64 240, ptr %4, align 8, !tbaa !238
  %.sroa.44.0..sroa_idx = getelementptr inbounds nuw i8, ptr %3, i64 16
  store i64 29, ptr %.sroa.44.0..sroa_idx, align 8, !tbaa !238
  %.sroa.55.0..sroa_idx = getelementptr inbounds nuw i8, ptr %3, i64 24
  store i64 15, ptr %.sroa.55.0..sroa_idx, align 8, !tbaa !238
  %.sroa.66.0..sroa_idx = getelementptr inbounds nuw i8, ptr %3, i64 32
  store i64 30, ptr %.sroa.66.0..sroa_idx, align 8, !tbaa !238
  %.sroa.77.0..sroa_idx = getelementptr inbounds nuw i8, ptr %3, i64 40
  store i8 0, ptr %.sroa.77.0..sroa_idx, align 8, !tbaa !363
  %.sroa.99.0..sroa_idx = getelementptr inbounds nuw i8, ptr %3, i64 48
  store ptr @.str.22, ptr %.sroa.99.0..sroa_idx, align 8, !tbaa !970
  %.sroa.1010.0..sroa_idx = getelementptr inbounds nuw i8, ptr %3, i64 56
  store ptr @.str.23, ptr %.sroa.1010.0..sroa_idx, align 8, !tbaa !970
  %.sroa.1111.0..sroa_idx = getelementptr inbounds nuw i8, ptr %3, i64 64
  store ptr @.str.24, ptr %.sroa.1111.0..sroa_idx, align 8, !tbaa !970
  %.sroa.1212.0..sroa_idx = getelementptr inbounds nuw i8, ptr %3, i64 72
  store ptr @.str.25, ptr %.sroa.1212.0..sroa_idx, align 8, !tbaa !970
  %.sroa.1313.0..sroa_idx = getelementptr inbounds nuw i8, ptr %3, i64 80
  store ptr @.str.26, ptr %.sroa.1313.0..sroa_idx, align 8, !tbaa !970
  %.sroa.1414.0..sroa_idx = getelementptr inbounds nuw i8, ptr %3, i64 88
  store ptr @.str.27, ptr %.sroa.1414.0..sroa_idx, align 8, !tbaa !970
  %.sroa.1515.0..sroa_idx = getelementptr inbounds nuw i8, ptr %3, i64 96
  store ptr @.str.28, ptr %.sroa.1515.0..sroa_idx, align 8, !tbaa !970
  %.sroa.1616.0..sroa_idx = getelementptr inbounds nuw i8, ptr %3, i64 104
  store ptr @.str.29, ptr %.sroa.1616.0..sroa_idx, align 8, !tbaa !970
  %.sroa.1717.0..sroa_idx = getelementptr inbounds nuw i8, ptr %3, i64 112
  store ptr @.str.30, ptr %.sroa.1717.0..sroa_idx, align 8, !tbaa !970
  %.sroa.18.0..sroa_idx = getelementptr inbounds nuw i8, ptr %3, i64 120
  store ptr @.str.31, ptr %.sroa.18.0..sroa_idx, align 8, !tbaa !970
  %.sroa.19.0..sroa_idx = getelementptr inbounds nuw i8, ptr %3, i64 128
  store ptr @.str.32, ptr %.sroa.19.0..sroa_idx, align 8, !tbaa !970
  call void @_ZN6duckdb16TextTreeRenderer8ToStringB5cxx11ERKNS_8PipelineE(ptr dead_on_unwind writable sret(%"class.std::__cxx11::basic_string") align 8 %0, ptr noundef nonnull align 8 dereferenceable(136) %3, ptr noundef nonnull align 8 dereferenceable(224) %1)
  call void @llvm.lifetime.end.p0(i64 136, ptr nonnull %3) #35
  ret void
}